; ModuleID = '16/402.c'
source_filename = "16/402.c"
target datalayout = "e-m:e-p270:32:32-p271:32:32-p272:64:64-i64:64-f80:128-n8:16:32:64-S128"
target triple = "x86_64-pc-linux-gnu"

@.str = private unnamed_addr constant [3 x i8] c"%d\00", align 1
@.str.1 = private unnamed_addr constant [5 x i8] c"%d%d\00", align 1
@.str.2 = private unnamed_addr constant [7 x i8] c"%d%d%d\00", align 1
@.str.3 = private unnamed_addr constant [9 x i8] c"%d%d%d%d\00", align 1

; Function Attrs: noinline nounwind uwtable
define dso_local void @main() #0 {
  %1 = alloca i32, align 4
  %2 = alloca i32, align 4
  %3 = alloca i32, align 4
  %4 = alloca i32, align 4
  %5 = alloca i32, align 4
  %6 = alloca i32, align 4
  %7 = alloca i32, align 4
  %8 = alloca i32, align 4
  %9 = alloca i32, align 4
  %10 = alloca i32, align 4
  %11 = call i32 (i8*, ...) @__isoc99_scanf(i8* getelementptr inbounds ([3 x i8], [3 x i8]* @.str, i64 0, i64 0), i32* %1)
  %12 = load i32, i32* %1, align 4
  %13 = icmp slt i32 %12, 10
  br i1 %13, label %14, label %17

14:                                               ; preds = %0
  %15 = load i32, i32* %1, align 4
  %16 = call i32 (i8*, ...) @printf(i8* getelementptr inbounds ([3 x i8], [3 x i8]* @.str, i64 0, i64 0), i32 %15)
  br label %85

17:                                               ; preds = %0
  %18 = load i32, i32* %1, align 4
  %19 = icmp slt i32 %18, 100
  br i1 %19, label %20, label %30

20:                                               ; preds = %17
  %21 = load i32, i32* %1, align 4
  %22 = srem i32 %21, 10
  store i32 %22, i32* %2, align 4
  %23 = load i32, i32* %1, align 4
  %24 = load i32, i32* %2, align 4
  %25 = sub nsw i32 %23, %24
  %26 = sdiv i32 %25, 10
  store i32 %26, i32* %3, align 4
  %27 = load i32, i32* %2, align 4
  %28 = load i32, i32* %3, align 4
  %29 = call i32 (i8*, ...) @printf(i8* getelementptr inbounds ([5 x i8], [5 x i8]* @.str.1, i64 0, i64 0), i32 %27, i32 %28)
  br label %84

30:                                               ; preds = %17
  %31 = load i32, i32* %1, align 4
  %32 = icmp slt i32 %31, 1000
  br i1 %32, label %33, label %52

33:                                               ; preds = %30
  %34 = load i32, i32* %1, align 4
  %35 = srem i32 %34, 10
  store i32 %35, i32* %4, align 4
  %36 = load i32, i32* %1, align 4
  %37 = load i32, i32* %4, align 4
  %38 = sub nsw i32 %36, %37
  %39 = sdiv i32 %38, 10
  %40 = srem i32 %39, 10
  store i32 %40, i32* %5, align 4
  %41 = load i32, i32* %1, align 4
  %42 = load i32, i32* %5, align 4
  %43 = mul nsw i32 10, %42
  %44 = sub nsw i32 %41, %43
  %45 = load i32, i32* %4, align 4
  %46 = sub nsw i32 %44, %45
  %47 = sdiv i32 %46, 100
  store i32 %47, i32* %6, align 4
  %48 = load i32, i32* %4, align 4
  %49 = load i32, i32* %5, align 4
  %50 = load i32, i32* %6, align 4
  %51 = call i32 (i8*, ...) @printf(i8* getelementptr inbounds ([7 x i8], [7 x i8]* @.str.2, i64 0, i64 0), i32 %48, i32 %49, i32 %50)
  br label %83

52:                                               ; preds = %30
  %53 = load i32, i32* %1, align 4
  %54 = srem i32 %53, 10
  store i32 %54, i32* %7, align 4
  %55 = load i32, i32* %1, align 4
  %56 = load i32, i32* %7, align 4
  %57 = sub nsw i32 %55, %56
  %58 = sdiv i32 %57, 10
  %59 = srem i32 %58, 10
  store i32 %59, i32* %8, align 4
  %60 = load i32, i32* %1, align 4
  %61 = load i32, i32* %7, align 4
  %62 = sub nsw i32 %60, %61
  %63 = load i32, i32* %8, align 4
  %64 = mul nsw i32 10, %63
  %65 = sub nsw i32 %62, %64
  %66 = sdiv i32 %65, 100
  %67 = srem i32 %66, 10
  store i32 %67, i32* %9, align 4
  %68 = load i32, i32* %1, align 4
  %69 = load i32, i32* %7, align 4
  %70 = sub nsw i32 %68, %69
  %71 = load i32, i32* %8, align 4
  %72 = mul nsw i32 10, %71
  %73 = sub nsw i32 %70, %72
  %74 = load i32, i32* %9, align 4
  %75 = mul nsw i32 100, %74
  %76 = sub nsw i32 %73, %75
  %77 = sdiv i32 %76, 1000
  store i32 %77, i32* %10, align 4
  %78 = load i32, i32* %7, align 4
  %79 = load i32, i32* %8, align 4
  %80 = load i32, i32* %9, align 4
  %81 = load i32, i32* %10, align 4
  %82 = call i32 (i8*, ...) @printf(i8* getelementptr inbounds ([9 x i8], [9 x i8]* @.str.3, i64 0, i64 0), i32 %78, i32 %79, i32 %80, i32 %81)
  br label %83

83:                                               ; preds = %52, %33
  br label %84

84:                                               ; preds = %83, %20
  br label %85

85:                                               ; preds = %84, %14
  ret void
}

declare dso_local i32 @__isoc99_scanf(i8*, ...) #1

declare dso_local i32 @printf(i8*, ...) #1


!llvm.module.flags = !{!0}
!llvm.ident = !{!1}

!0 = !{i32 1, !"wchar_size", i32 4}
!1 = !{!"clang version 10.0.0-4ubuntu1 "}
